; Function Attrs: mustprogress nounwind uwtable
define dso_local void @_ZN4node4quic6Packet8TruncateEm(ptr nocapture noundef nonnull readonly align 8 dereferenceable(576) %this, i64 noundef %len) local_unnamed_addr #6 align 2 {
entry:
  %data_ = getelementptr inbounds i8, ptr %this, i64 552
  %0 = load ptr, ptr %data_, align 8
  %capacity_.i.i = getelementptr inbounds i8, ptr %0, i64 16
  %1 = load i64, ptr %capacity_.i.i, align 8
  %cmp.not.i = icmp ult i64 %1, %len
  br i1 %cmp.not.i, label %do.body4.i, label %_ZN4node16MaybeStackBufferIhLm1200EE9SetLengthEm.exit

do.body4.i:                                       ; preds = %entry
  tail call void @_ZN4node6AssertERKNS_13AssertionInfoE(ptr noundef nonnull align 8 dereferenceable(24) @_ZZN4node16MaybeStackBufferIhLm1200EE9SetLengthEmE4args) #22
  tail call void @abort() #23
  unreachable

_ZN4node16MaybeStackBufferIhLm1200EE9SetLengthEm.exit: ; preds = %entry
  %data_2 = getelementptr inbounds i8, ptr %0, i64 8
  store i64 %len, ptr %data_2, align 8
  ret void
}